(dp0
S'parentFilename'
p1
NsS'networkData'
p2
(lp3
(dp4
S'data'
p5
S'AAAA'
p6
sS'from'
p7
S'cli'
p8
sS'index'
p9
I0
sa(dp10
g5
S'ok'
p11
sg7
S'srv'
p12
sg9
I1
sa(dp13
g5
S'BBBB'
p14
sg7
g8
sg9
I2
sa(dp15
g5
S'ok'
p16
sg7
g12
sg9
I3
sa(dp17
g5
S'CCCC'
p18
sg7
g8
sg9
I4
sa(dp19
g5
S'ok'
p20
sg7
g12
sg9
I5
sasS'seed'
p21
NsS'time'
p22
NsS'filename'
p23
S'data_0.pickle'
p24
s.