(dp0
S'filename'
p1
S'joinchangenicknoop.pickle'
p2
sS'parentFilename'
p3
NsS'seed'
p4
NsS'time'
p5
NsS'networkData'
p6
(lp7
(dp8
S'from'
p9
S'cli'
p10
sS'data'
p11
S'CAP LS\r\nNICK dobin\r\nUSER dobin dobin localhost :dobin\r\n'
p12
sS'index'
p13
I0
sa(dp14
g9
S'srv'
p15
sg11
S':irc.example.net CAP * LS :multi-prefix\r\n'
p16
sg13
I1
sa(dp17
g9
g10
sg11
S'CAP REQ :multi-prefix\r\n'
p18
sg13
I2
sa(dp19
g9
g15
sg11
S':irc.example.net CAP dobin ACK :multi-prefix\r\n'
p20
sg13
I3
sa(dp21
g9
g10
sg11
S'CAP END\r\n'
p22
sg13
I4
sa(dp23
g9
g15
sg11
S':irc.example.net 001 dobin :Welcome to the Internet Relay Network dobin!~dobin@127.0.0.1\r\n:irc.example.net 002 dobin :Your host is irc.example.net, running version ngircd-24 (x86_64/pc/linux-gnu)\r\n:irc.example.net 003 dobin :This server has been started Sat May 05 2018 at 13:16:09 (CEST)\r\n:irc.example.net 004 dobin irc.example.net ngircd-24 abBcCFiIoqrRswx abehiIklmMnoOPqQrRstvVz\r\n:irc.example.net 005 dobin RFC2812 IRCD=ngIRCd CHARSET=UTF-8 CASEMAPPING=ascii PREFIX=(qaohv)~&@%+ CHANTYPES=#&+ CHANMODES=beI,k,l,imMnOPQRstVz CHANLIMIT=#&+:0 :are supported on this server\r\n:irc.example.net 005 dobin CHANNELLEN=50 NICKLEN=9 TOPICLEN=490 AWAYLEN=127 KICKLEN=400 MODES=5 MAXLIST=beI:50 EXCEPTS=e INVEX=I PENALTY :are supported on this server\r\n:irc.example.net 251 dobin :There are 1 users and 0 services on 1 servers\r\n:irc.example.net 254 dobin 1 :channels formed\r\n:irc.example.net 255 dobin :I have 1 users, 0 services and 0 servers\r\n:irc.example.net 265 dobin 1 1 :Current local users: 1, Max: 1\r\n:irc.example.net 266 dobin 1 1 :Current global users: 1, Max: 1\r\n:irc.example.net 250 dobin :Highest connection count: 1 (2 connections received)\r\n:irc.example.net 422 dobin :MOTD file is missing\r\n'
p24
sg13
I5
sa(dp25
g9
g10
sg11
S'MODE dobin +i\r\n'
p26
sg13
I6
sa(dp27
g9
g15
sg11
S':dobin!~dobin@127.0.0.1 MODE dobin :+i\r\n'
p28
sg13
I7
sa(dp29
g9
g10
sg11
S'PING irc.example.net\r\n'
p30
sg13
I8
sa(dp31
g9
g15
sg11
S':irc.example.net PONG irc.example.net :irc.example.net\r\n'
p32
sg13
I9
sa(dp33
g9
g10
sg11
S'JOIN #test\r\n'
p34
sg13
I10
sa(dp35
g9
g15
sg11
S':dobin!~dobin@127.0.0.1 JOIN :#test\r\n:irc.example.net 353 dobin = #test :@dobin\r\n:irc.example.net 366 dobin #test :End of NAMES list\r\n'
p36
sg13
I11
sa(dp37
g9
g10
sg11
S'MODE #test\r\n'
p38
sg13
I12
sa(dp39
g9
g15
sg11
S':irc.example.net 324 dobin #test +\r\n:irc.example.net 329 dobin #test 1525519038\r\n'
p40
sg13
I13
sa(dp41
g9
g10
sg11
S'WHO #test\r\n'
p42
sg13
I14
sa(dp43
g9
g15
sg11
S':irc.example.net 352 dobin #test ~dobin 127.0.0.1 irc.example.net dobin H@ :0 dobin\r\n:irc.example.net 315 dobin #test :End of WHO list\r\n'
p44
sg13
I15
sa(dp45
g9
g10
sg11
S'MODE #test b\r\n'
p46
sg13
I16
sa(dp47
g9
g15
sg11
S':irc.example.net 368 dobin #test :End of channel ban list\r\n'
p48
sg13
I17
sa(dp49
g9
g10
sg11
S'PRIVMSG dobin :message\r\n'
p50
sg13
I18
sa(dp51
g9
g15
sg11
S':dobin!~dobin@127.0.0.1 PRIVMSG dobin :message\r\n'
p52
sg13
I19
sa(dp53
g9
g10
sg11
S'NICK dobin2\r\n'
p54
sg13
I20
sa(dp55
g9
g15
sg11
S':dobin!~dobin@127.0.0.1 NICK :dobin2\r\n'
p56
sg13
I21
sa(dp57
g9
g10
sg11
S'PING irc.example.net\r\n'
p58
sg13
I22
sa(dp59
g9
g15
sg11
S':irc.example.net PONG irc.example.net :irc.example.net\r\n'
p60
sg13
I23
sa(dp61
g9
g10
sg11
S'MODE #test -o dobin2\r\n'
p62
sg13
I24
sa(dp63
g9
g15
sg11
S':dobin2!~dobin@127.0.0.1 MODE #test -o dobin2\r\n'
p64
sg13
I25
sa(dp65
g9
g10
sg11
S'QUIT :leaving\r\n'
p66
sg13
I26
sa(dp67
g9
g15
sg11
S':irc.example.net NOTICE dobin2 :Connection statistics: client 0.3 kb, server 1.9 kb.\r\nERROR :"leaving"\r\n'
p68
sg13
I27
sas.