(dp0
S'filename'
p1
S'joinchannelmsg.pickle'
p2
sS'parentFilename'
p3
NsS'seed'
p4
NsS'time'
p5
NsS'networkData'
p6
(lp7
(dp8
S'data'
p9
S'CAP LS\r\nNICK root\r\nUSER root root localhost :root\r\n'
p10
sS'from'
p11
S'cli'
p12
sS'index'
p13
I0
sa(dp14
g9
S':irc.example.net CAP * LS :multi-prefix\r\n'
p15
sg11
S'srv'
p16
sg13
I1
sa(dp17
g9
S'CAP REQ :multi-prefix\r\n'
p18
sg11
g12
sg13
I2
sa(dp19
g9
S':irc.example.net CAP root ACK :multi-prefix\r\n'
p20
sg11
g16
sg13
I3
sa(dp21
g9
S'CAP END\r\n'
p22
sg11
g12
sg13
I4
sa(dp23
g9
S':irc.example.net 001 root :Welcome to the Internet Relay Network root!~root@127.0.0.1\r\n:irc.example.net 002 root :Your host is irc.example.net, running version ngircd-24 (x86_64/pc/linux-gnu)\r\n:irc.example.net 003 root :This server has been started Sat Apr 14 2018 at 11:20:38 (UTC)\r\n:irc.example.net 004 root irc.example.net ngircd-24 abBcCFiIoqrRswx abehiIklmMnoOPqQrRstvVz\r\n:irc.example.net 005 root RFC2812 IRCD=ngIRCd CHARSET=UTF-8 CASEMAPPING=ascii PREFIX=(qaohv)~&@%+ CHANTYPES=#&+ CHANMODES=beI,k,l,imMnOPQRstVz CHANLIMIT=#&+:0 :are supported on this server\r\n:irc.example.net 005 root CHANNELLEN=50 NICKLEN=9 TOPICLEN=490 AWAYLEN=127 KICKLEN=400 MODES=5 MAXLIST=beI:50 EXCEPTS=e INVEX=I PENALTY :are supported on this server\r\n:irc.example.net 251 root :There are 1 users and 0 services on 1 servers\r\n:irc.example.net 254 root 1 :channels formed\r\n:irc.example.net 255 root :I have 1 users, 0 services and 0 servers\r\n:irc.example.net 265 root 1 1 :Current local users: 1, Max: 1\r\n:irc.example.net 266 root 1 1 :Current global users: 1, Max: 1\r\n:irc.example.net 250 root :Highest connection count: 1 (2 connections received)\r\n:irc.example.net 422 root :MOTD file is missing\r\n'
p24
sg11
g16
sg13
I5
sa(dp25
g9
S'MODE root +i\r\n'
p26
sg11
g12
sg13
I6
sa(dp27
g9
S':root!~root@127.0.0.1 MODE root :+i\r\n'
p28
sg11
g16
sg13
I7
sa(dp29
g9
S'PING irc.example.net\r\n'
p30
sg11
g12
sg13
I8
sa(dp31
g9
S':irc.example.net PONG irc.example.net :irc.example.net\r\n'
p32
sg11
g16
sg13
I9
sa(dp33
g9
S'JOIN #test\r\n'
p34
sg11
g12
sg13
I10
sa(dp35
g9
S':root!~root@127.0.0.1 JOIN :#test\r\n:irc.example.net 353 root = #test :@root\r\n:irc.example.net 366 root #test :End of NAMES list\r\n'
p36
sg11
g16
sg13
I11
sa(dp37
g9
S'MODE #test\r\n'
p38
sg11
g12
sg13
I12
sa(dp39
g9
S':irc.example.net 324 root #test +\r\n:irc.example.net 329 root #test 1523704923\r\n'
p40
sg11
g16
sg13
I13
sa(dp41
g9
S'WHO #test\r\n'
p42
sg11
g12
sg13
I14
sa(dp43
g9
S':irc.example.net 352 root #test ~root 127.0.0.1 irc.example.net root H@ :0 root\r\n:irc.example.net 315 root #test :End of WHO list\r\n'
p44
sg11
g16
sg13
I15
sa(dp45
g9
S'MODE #test b\r\n'
p46
sg11
g12
sg13
I16
sa(dp47
g9
S':irc.example.net 368 root #test :End of channel ban list\r\n'
p48
sg11
g16
sg13
I17
sa(dp49
g9
S'PRIVMSG #test :bla\r\n'
p50
sg11
g12
sg13
I18
sa(dp51
g9
S'QUIT :leaving\r\n'
p52
sg11
g12
sg13
I19
sa(dp53
g9
S':irc.example.net NOTICE root :Connection statistics: client 0.2 kb, server 1.7 kb.\r\nERROR :"leaving"\r\n'
p54
sg11
g16
sg13
I20
sas.