(dp0
S'parentFilename'
p1
NsS'networkData'
p2
(lp3
(dp4
S'data'
p5
S'CAP LS\r\nNICK dobin\r\nUSER dobin dobin localhost :dobin\r\n'
p6
sS'from'
p7
S'cli'
p8
sS'index'
p9
I0
sa(dp10
g5
S':irc.example.net CAP * LS :multi-prefix\r\n'
p11
sg7
S'srv'
p12
sg9
I1
sa(dp13
g5
S'CAP REQ :multi-prefix\r\n'
p14
sg7
g8
sg9
I2
sa(dp15
g5
S':irc.example.net CAP dobin ACK :multi-prefix\r\n'
p16
sg7
g12
sg9
I3
sa(dp17
g5
S'CAP END\r\n'
p18
sg7
g8
sg9
I4
sa(dp19
g5
S':irc.example.net 001 dobin :Welcome to the Internet Relay Network dobin!~dobin@127.0.0.1\r\n:irc.example.net 002 dobin :Your host is irc.example.net, running version ngircd-24 (x86_64/pc/linux-gnu)\r\n:irc.example.net 003 dobin :This server has been started Sat May 05 2018 at 13:16:09 (CEST)\r\n:irc.example.net 004 dobin irc.example.net ngircd-24 abBcCFiIoqrRswx abehiIklmMnoOPqQrRstvVz\r\n:irc.example.net 005 dobin RFC2812 IRCD=ngIRCd CHARSET=UTF-8 CASEMAPPING=ascii PREFIX=(qaohv)~&@%+ CHANTYPES=#&+ CHANMODES=beI,k,l,imMnOPQRstVz CHANLIMIT=#&+:0 :are supported on this server\r\n:irc.example.net 005 dobin CHANNELLEN=50 NICKLEN=9 TOPICLEN=490 AWAYLEN=127 KICKLEN=400 MODES=5 MAXLIST=beI:50 EXCEPTS=e INVEX=I PENALTY :are supported on this server\r\n:irc.example.net 251 dobin :There are 1 users and 0 services on 1 servers\r\n:irc.example.net 254 dobin 1 :channels formed\r\n:irc.example.net 255 dobin :I have 1 users, 0 services and 0 servers\r\n:irc.example.net 265 dobin 1 1 :Current local users: 1, Max: 1\r\n:irc.example.net 266 dobin 1 1 :Current global users: 1, Max: 1\r\n:irc.example.net 250 dobin :Highest connection count: 1 (2 connections received)\r\n:irc.example.net 422 dobin :MOTD file is missing\r\n'
p20
sg7
g12
sg9
I5
sa(dp21
g5
S'MODE dobin +i\r\n'
p22
sg7
g8
sg9
I6
sa(dp23
g5
S':dobin!~dobin@127.0.0.1 MODE dobin :+i\r\n'
p24
sg7
g12
sg9
I7
sa(dp25
g5
S'PING irc.example.net\r\n'
p26
sg7
g8
sg9
I8
sa(dp27
g5
S':irc.example.net PONG irc.example.net :irc.example.net\r\n'
p28
sg7
g12
sg9
I9
sa(dp29
g5
S'JOIN #test\r\n'
p30
sg7
g8
sg9
I10
sa(dp31
g5
S':dobin!~dobin@127.0.0.1 JOIN :#test\r\n:irc.example.net 353 dobin = #test :@dobin\r\n:irc.example.net 366 dobin #test :End of NAMES list\r\n'
p32
sg7
g12
sg9
I11
sa(dp33
g5
S'MODE #test\r\n'
p34
sg7
g8
sg9
I12
sa(dp35
g5
S':irc.example.net 324 dobin #test +\r\n:irc.example.net 329 dobin #test 1525519038\r\n'
p36
sg7
g12
sg9
I13
sa(dp37
g5
S'WHO #test\r\n'
p38
sg7
g8
sg9
I14
sa(dp39
g5
S':irc.example.net 352 dobin #test ~dobin 127.0.0.1 irc.example.net dobin H@ :0 dobin\r\n:irc.example.net 315 dobin #test :End of WHO list\r\n'
p40
sg7
g12
sg9
I15
sa(dp41
g5
S'MODE #test b\r\n'
p42
sg7
g8
sg9
I16
sa(dp43
g5
S':irc.example.net 368 dobin #test :End of channel ban list\r\n'
p44
sg7
g12
sg9
I17
sa(dp45
g5
S'PRIVMSG dobin :message\r\n'
p46
sg7
g8
sg9
I18
sa(dp47
g5
S':dobin!~dobin@127.0.0.1 PRIVMSG dobin :message\r\n'
p48
sg7
g12
sg9
I19
sa(dp49
g5
S'NICK dobin2\r\n'
p50
sg7
g8
sg9
I20
sa(dp51
g5
S':dobin!~dobin@127.0.0.1 NICK :dobin2\r\n'
p52
sg7
g12
sg9
I21
sa(dp53
g5
S'PING irc.example.net\r\n'
p54
sg7
g8
sg9
I22
sa(dp55
g5
S':irc.example.net PONG irc.example.net :irc.example.net\r\n'
p56
sg7
g12
sg9
I23
sa(dp57
g5
S'MODE #test -o dobin2\r\n'
p58
sg7
g8
sg9
I24
sa(dp59
g5
S':dobin2!~dobin@127.0.0.1 MODE #test -o dobin2\r\n'
p60
sg7
g12
sg9
I25
sa(dp61
g5
S'QUIT :leaving\r\n'
p62
sg7
g8
sg9
I26
sa(dp63
g5
S':irc.example.net NOTICE dobin2 :Connection statistics: client 0.3 kb, server 1.9 kb.\r\nERROR :"leaving"\r\n'
p64
sg7
g12
sg9
I27
sasS'seed'
p65
NsS'time'
p66
NsS'filename'
p67
S'data_0.pickle'
p68
s.