(dp0
S'parentFilename'
p1
NsS'networkData'
p2
(lp3
(dp4
S'index'
p5
I0
sS'data'
p6
S'@\x01sj9localhostB\x04\x00Dtime'
p7
sS'from'
p8
S'cli'
p9
sa(dp10
g5
I1
sg6
S'`Esj\xc0!\x01\xffOct 08 13:19:49'
p11
sg8
S'srv'
p12
sa(dp13
g5
I2
sg6
S'@\x03sj9localhostB\x04\x00Dtime\xff100\n'
p14
sg8
g9
sa(dp15
g5
I3
sg6
S'`Dsj'
p16
sg8
g12
sa(dp17
g5
I4
sg6
S'@\x01sj9localhostB\x04\x00Dtime'
p18
sg8
g9
sa(dp19
g5
I5
sg6
S'`Esj\xc0!\x01\xffJan 01 15:04:51'
p20
sg8
g12
sasS'seed'
p21
NsS'time'
p22
NsS'filename'
p23
S'data_0.pickle'
p24
s.