(dp0
S'parentFilename'
p1
NsS'networkData'
p2
(lp3
(dp4
S'from'
p5
S'cli'
p6
sS'data'
p7
S'\x10\x11\x00\x04MQTT\x04\x00\x00<\x00\x05dummy'
p8
sS'index'
p9
I0
sa(dp10
g5
S'srv'
p11
sg7
S' \x02\x00\x00'
p12
sg9
I1
sa(dp13
g5
g6
sg7
S'\x82\x0b\x00*\x00\x06/stuff\x00'
p14
sg9
I2
sa(dp15
g5
g11
sg7
S'\x92\x03\x00*\x00'
p16
sg9
I3
sasS'seed'
p17
NsS'time'
p18
NsS'filename'
p19
S'data_0.pickle'
p20
s.