(dp0
S'parentFilename'
p1
NsS'time'
p2
NsS'filename'
p3
S'intercept0.pickle'
p4
sS'seed'
p5
NsS'fuzzer'
p6
NsS'networkData'
p7
(lp8
(dp9
S'timeouts'
p10
I0
sS'data'
p11
S'CAP LS\r\nNICK dobin\r\nUSER dobin dobin 127.0.0.1 :dobin\r\n'
p12
sS'from'
p13
S'cli'
p14
sS'latency'
p15
NsS'index'
p16
I0
sa(dp17
g10
I0
sg11
S':irc.example.net CAP * LS :multi-prefix\r\n'
p18
sg13
S'srv'
p19
sg15
Nsg16
I1
sa(dp20
g10
I0
sg11
S'CAP REQ :multi-prefix\r\n'
p21
sg13
g14
sg15
Nsg16
I2
sa(dp22
g10
I0
sg11
S':irc.example.net CAP dobin ACK :multi-prefix\r\n'
p23
sg13
g19
sg15
Nsg16
I3
sa(dp24
g10
I0
sg11
S'CAP END\r\n'
p25
sg13
g14
sg15
Nsg16
I4
sa(dp26
g10
I0
sg11
S':irc.example.net 001 dobin :Welcome to the Internet Relay Network dobin!~dobin@127.0.0.1\r\n:irc.example.net 002 dobin :Your host is irc.example.net, running version ngircd-24~27-gfb760d94 (x86_64/pc/linux-gnu)\r\n:irc.example.net 003 dobin :This server has been started Sat May 26 2018 at 13:02:06 (UTC)\r\n:irc.example.net 004 dobin irc.example.net ngircd-24~27-gfb760d94 abBcCFiIoqrRswx abehiIklmMnoOPqQrRstvVz\r\n:irc.example.net 005 dobin RFC2812 IRCD=ngIRCd CHARSET=UTF-8 CASEMAPPING=ascii PREFIX=(qaohv)~&@%+ CHANTYPES=#&+ CHANMODES=beI,k,l,imMnOPQRstVz CHANLIMIT=#&+:0 :are supported on this server\r\n:irc.example.net 005 dobin CHANNELLEN=50 NICKLEN=9 TOPICLEN=490 AWAYLEN=127 KICKLEN=400 MODES=5 MAXLIST=beI:50 EXCEPTS=e INVEX=I PENALTY :are supported on this server\r\n:irc.example.net 251 dobin :There are 1 users and 0 services on 1 servers\r\n:irc.example.net 254 dobin 1 :channels formed\r\n:irc.example.net 255 dobin :I have 1 users, 0 services and 0 servers\r\n:irc.example.net 265 dobin 1 1 :Current local users: 1, Max: 1\r\n:irc.example.net 266 dobin 1 1 :Current global users: 1, Max: 1\r\n:irc.example.net 250 dobin :Highest connection count: 1 (2 connections received)\r\n:irc.example.net 422 dobin :MOTD file is missing\r\n:dobin!~dobin@127.0.0.1 MODE dobin :+i\r\n'
p27
sg13
g19
sg15
Nsg16
I5
sa(dp28
g10
I0
sg11
S'MODE dobin +i\r\n'
p29
sg13
g14
sg15
Nsg16
I6
sa(dp30
g10
I0
sg11
S'PING irc.example.net\r\n'
p31
sg13
g14
sg15
Nsg16
I7
sa(dp32
g10
I0
sg11
S':irc.example.net PONG irc.example.net :irc.example.net\r\n'
p33
sg13
g19
sg15
Nsg16
I8
sa(dp34
g10
I0
sg11
S'JOIN #test\r\n'
p35
sg13
g14
sg15
Nsg16
I9
sa(dp36
g10
I0
sg11
S':dobin!~dobin@127.0.0.1 JOIN :#test\r\n:irc.example.net 353 dobin = #test :@dobin\r\n:irc.example.net 366 dobin #test :End of NAMES list\r\n'
p37
sg13
g19
sg15
Nsg16
I10
sa(dp38
g10
I0
sg11
S'MODE #test\r\n'
p39
sg13
g14
sg15
Nsg16
I11
sa(dp40
g10
I0
sg11
S':irc.example.net 324 dobin #test +\r\n:irc.example.net 329 dobin #test 1527339750\r\n'
p41
sg13
g19
sg15
Nsg16
I12
sa(dp42
g10
I0
sg11
S'WHO #test\r\n'
p43
sg13
g14
sg15
Nsg16
I13
sa(dp44
g10
I0
sg11
S':irc.example.net 352 dobin #test ~dobin 127.0.0.1 irc.example.net dobin H@ :0 dobin\r\n:irc.example.net 315 dobin #test :End of WHO list\r\n'
p45
sg13
g19
sg15
Nsg16
I14
sa(dp46
g10
I0
sg11
S'MODE #test b\r\n'
p47
sg13
g14
sg15
Nsg16
I15
sa(dp48
g10
I0
sg11
S':irc.example.net 368 dobin #test :End of channel ban list\r\n'
p49
sg13
g19
sg15
Nsg16
I16
sa(dp50
g10
I0
sg11
S'TOPIC #test :blatopic\r\n'
p51
sg13
g14
sg15
Nsg16
I17
sa(dp52
g10
I0
sg11
S':dobin!~dobin@127.0.0.1 TOPIC #test :blatopic\r\n'
p53
sg13
g19
sg15
Nsg16
I18
sa(dp54
g10
I0
sg11
S'PRIVMSG #test :meh\r\n'
p55
sg13
g14
sg15
Nsg16
I19
sa(dp56
g10
I0
sg11
S'PRIVMSG #test :\x01ACTION is cool\x01\r\n'
p57
sg13
g14
sg15
Nsg16
I20
sa(dp58
g10
I0
sg11
S'LIST #test\r\n'
p59
sg13
g14
sg15
Nsg16
I21
sa(dp60
g10
I0
sg11
S':irc.example.net 321 dobin Channel :Users  Name\r\n:irc.example.net 322 dobin #test 1 :blatopic\r\n:irc.example.net 323 dobin :End of LIST\r\n'
p61
sg13
g19
sg15
Nsg16
I22
sa(dp62
g10
I0
sg11
S'PING irc.example.net\r\n'
p63
sg13
g14
sg15
Nsg16
I23
sa(dp64
g10
I0
sg11
S':irc.example.net PONG irc.example.net :irc.example.net\r\n'
p65
sg13
g19
sg15
Nsg16
I24
sa(dp66
g10
I0
sg11
S'MODE #test +dobin -o\r\n'
p67
sg13
g14
sg15
Nsg16
I25
sa(dp68
g10
I0
sg11
S':irc.example.net 472 dobin d :is unknown mode char for #test\r\n:irc.example.net 401 dobin -o :No such nick or channel name\r\n:irc.example.net 368 dobin #test :End of channel ban list\r\n:dobin!~dobin@127.0.0.1 MODE #test +in\r\n'
p69
sg13
g19
sg15
Nsg16
I26
sa(dp70
g10
I0
sg11
S'QUIT :leaving\r\n'
p71
sg13
g14
sg15
Nsg16
I27
sa(dp72
g10
I0
sg11
S':irc.example.net NOTICE dobin :Connection statistics: client 0.3 kb, server 2.2 kb.\r\nERROR :"leaving"\r\n'
p73
sg13
g19
sg15
Nsg16
I28
sas.