(lp0
(dp1
S'isFuzzed'
p2
I01
sS'index'
p3
I0
sS'from'
p4
S'cli'
p5
sS'data'
p6
S'@\x01sj9tocalhocalhostocalhossB\x9d\x00Dtime'
p7
sa(dp8
g3
I1
sg6
S'`Esj\xc0!\x01\xffOct 08 13:19:49'
p9
sg4
S'srv'
p10
sa(dp11
S'isFuzzed'
p12
I01
sg3
I2
sg6
S'@\x03sj9localhostB\x04\x00DtimeD\xf3\xa0\x81\xaftim\xc2\xb7e\xff100\n'
p13
sg4
g5
sa(dp14
g3
I3
sg6
S'`Dsj'
p15
sg4
g10
sa(dp16
g3
I4
sg6
S'@\x01sj9localhostB\x04\x00Dtime'
p17
sg4
g5
sa(dp18
g3
I5
sg6
S'`Esj\xc0!\x01\xffJan 01 15:04:51'
p19
sg4
g10
sa.