(lp0
(dp1
S'isFuzzed'
p2
I01
sS'index'
p3
I0
sS'data'
p4
S'@\x01sj9tocalhocalhostocalhossB\x9d\x00Dtime'
p5
sS'from'
p6
S'cli'
p7
sa(dp8
g3
I1
sg4
S'`Esj\xc0!\x01\xffOct 08 13:19:49'
p9
sg6
S'srv'
p10
sa(dp11
g3
I2
sg4
S'@\x03sj9localhostB\x04\x00Dtime\xff100\n'
p12
sg6
g7
sa(dp13
g3
I3
sg4
S'`Dsj'
p14
sg6
g10
sa(dp15
g3
I4
sg4
S'@\x01sj9localhostB\x04\x00Dtime'
p16
sg6
g7
sa(dp17
g3
I5
sg4
S'`Esj\xc0!\x01\xffJan 01 15:04:51'
p18
sg6
g10
sa.