(lp0
(dp1
S'index'
p2
I0
sS'data'
p3
S'@\x01sj9localhostB\x04\x00Dtime'
p4
sS'from'
p5
S'cli'
p6
sa(dp7
g2
I1
sg3
S'`Esj\xc0!\x01\xffOct 08 13:19:49'
p8
sg5
S'srv'
p9
sa(dp10
g2
I2
sg3
S'@\x03sj9localhostB\x04\x00Dtime\xff100\n'
p11
sg5
g6
sa(dp12
g2
I3
sg3
S'`Dsj'
p13
sg5
g9
sa(dp14
g2
I4
sg3
S'@\x01sj9localhostB\x04\x00Dtime'
p15
sg5
g6
sa(dp16
g2
I5
sg3
S'`Esj\xc0!\x01\xffJan 01 15:04:51'
p17
sg5
g9
sa.